target datalayout = "e-m:e-p270:32:32-p271:32:32-p272:64:64-i64:64-i128:128-f80:128-n8:16:32:64-S128"
target triple = "x86_64-pc-linux-gnu"

%"class.cv::Size_" = type { i32, i32 }
%"class.cv::detail::tracking::online_boosting::StrongClassifierDirectSelection" = type { ptr, i32, i32, i32, i32, ptr, %"class.std::vector", %"class.cv::Size_", i8, %"class.std::vector.0", %"class.std::vector", %"class.std::vector", ptr, %"class.cv::Rect_", i32, i32 }
%"class.std::vector.0" = type { %"struct.std::_Bvector_base" }
%"struct.std::_Bvector_base" = type { %"struct.std::_Bvector_base<std::allocator<bool>>::_Bvector_impl" }
%"struct.std::_Bvector_base<std::allocator<bool>>::_Bvector_impl" = type { %"struct.std::_Bvector_base<std::allocator<bool>>::_Bvector_impl_data" }
%"struct.std::_Bvector_base<std::allocator<bool>>::_Bvector_impl_data" = type { %"struct.std::_Bit_iterator", %"struct.std::_Bit_iterator", ptr }
%"struct.std::_Bit_iterator" = type { %"struct.std::_Bit_iterator_base.base", [4 x i8] }
%"struct.std::_Bit_iterator_base.base" = type <{ ptr, i32 }>
%"class.std::vector" = type { %"struct.std::_Vector_base" }
%"struct.std::_Vector_base" = type { %"struct.std::_Vector_base<float, std::allocator<float>>::_Vector_impl" }
%"struct.std::_Vector_base<float, std::allocator<float>>::_Vector_impl" = type { %"struct.std::_Vector_base<float, std::allocator<float>>::_Vector_impl_data" }
%"struct.std::_Vector_base<float, std::allocator<float>>::_Vector_impl_data" = type { ptr, ptr, ptr }
%"class.cv::Rect_" = type { i32, i32, i32, i32 }
%"class.cv::detail::tracking::online_boosting::BaseClassifier" = type <{ ptr, ptr, i8, [3 x i8], i32, i32, i32, %"class.std::vector", %"class.std::vector", i32, [4 x i8] }>

@_ZN2cv6detail8tracking15online_boosting14BaseClassifierC1Eii = hidden unnamed_addr alias void (ptr, i32, i32), ptr @_ZN2cv6detail8tracking15online_boosting14BaseClassifierC2Eii
@_ZN2cv6detail8tracking15online_boosting14BaseClassifierC1EiiPPNS2_25WeakClassifierHaarFeatureE = hidden unnamed_addr alias void (ptr, i32, i32, ptr), ptr @_ZN2cv6detail8tracking15online_boosting14BaseClassifierC2EiiPPNS2_25WeakClassifierHaarFeatureE

; Function Attrs: mustprogress nounwind uwtable
define linkonce_odr hidden noundef ptr @_ZN2cv6detail8tracking15online_boosting14BaseClassifier26getReferenceWeakClassifierEv(ptr noundef nonnull align 8 dereferenceable(84) %0) #5 comdat align 2 {
  %2 = alloca ptr, align 8
  store ptr %0, ptr %2, align 8, !tbaa !66
  %3 = load ptr, ptr %2, align 8
  %4 = getelementptr inbounds nuw %"class.cv::detail::tracking::online_boosting::BaseClassifier", ptr %3, i32 0, i32 1
  %5 = load ptr, ptr %4, align 8, !tbaa !70
  ret ptr %5
}

; Function Attrs: mustprogress uwtable
define hidden void @_ZN2cv6detail8tracking15online_boosting31StrongClassifierDirectSelection18initBaseClassifierEv(ptr noundef nonnull align 8 dereferenceable(192) %0) #4 align 2 personality ptr @__gxx_personality_v0 {
  %2 = alloca ptr, align 8
  %3 = alloca ptr, align 8
  %4 = alloca i32, align 4
  %5 = alloca i32, align 4
  store ptr %0, ptr %2, align 8, !tbaa !3
  %6 = load ptr, ptr %2, align 8
  %7 = getelementptr inbounds nuw %"class.cv::detail::tracking::online_boosting::StrongClassifierDirectSelection", ptr %6, i32 0, i32 1
  %8 = load i32, ptr %7, align 8, !tbaa !16
  %9 = sext i32 %8 to i64
  %10 = call { i64, i1 } @llvm.umul.with.overflow.i64(i64 %9, i64 8)
  %11 = extractvalue { i64, i1 } %10, 1
  %12 = extractvalue { i64, i1 } %10, 0
  %13 = select i1 %11, i64 -1, i64 %12
  %14 = call noalias noundef nonnull ptr @_Znam(i64 noundef %13) #18
  %15 = getelementptr inbounds nuw %"class.cv::detail::tracking::online_boosting::StrongClassifierDirectSelection", ptr %6, i32 0, i32 5
  store ptr %14, ptr %15, align 8, !tbaa !65
  %16 = call noalias noundef nonnull ptr @_Znwm(i64 noundef 88) #18
  %17 = getelementptr inbounds nuw %"class.cv::detail::tracking::online_boosting::StrongClassifierDirectSelection", ptr %6, i32 0, i32 3
  %18 = load i32, ptr %17, align 8, !tbaa !37
  %19 = getelementptr inbounds nuw %"class.cv::detail::tracking::online_boosting::StrongClassifierDirectSelection", ptr %6, i32 0, i32 4
  %20 = load i32, ptr %19, align 4, !tbaa !36
  invoke void @_ZN2cv6detail8tracking15online_boosting14BaseClassifierC1Eii(ptr noundef nonnull align 8 dereferenceable(84) %16, i32 noundef %18, i32 noundef %20)
          to label %21 unwind label %31

21:                                               ; preds = %1
  %22 = getelementptr inbounds nuw %"class.cv::detail::tracking::online_boosting::StrongClassifierDirectSelection", ptr %6, i32 0, i32 5
  %23 = load ptr, ptr %22, align 8, !tbaa !65
  %24 = getelementptr inbounds ptr, ptr %23, i64 0
  store ptr %16, ptr %24, align 8, !tbaa !66
  call void @llvm.lifetime.start.p0(i64 4, ptr %5) #3
  store i32 1, ptr %5, align 4, !tbaa !8
  br label %25

25:                                               ; preds = %53, %21
  %26 = load i32, ptr %5, align 4, !tbaa !8
  %27 = getelementptr inbounds nuw %"class.cv::detail::tracking::online_boosting::StrongClassifierDirectSelection", ptr %6, i32 0, i32 1
  %28 = load i32, ptr %27, align 8, !tbaa !16
  %29 = icmp slt i32 %26, %28
  br i1 %29, label %35, label %30

30:                                               ; preds = %25
  call void @llvm.lifetime.end.p0(i64 4, ptr %5) #3
  br label %60

31:                                               ; preds = %1
  %32 = landingpad { ptr, i32 }
          cleanup
  %33 = extractvalue { ptr, i32 } %32, 0
  store ptr %33, ptr %3, align 8
  %34 = extractvalue { ptr, i32 } %32, 1
  store i32 %34, ptr %4, align 4
  call void @_ZdlPv(ptr noundef %16) #19
  br label %61

35:                                               ; preds = %25
  %36 = call noalias noundef nonnull ptr @_Znwm(i64 noundef 88) #18
  %37 = getelementptr inbounds nuw %"class.cv::detail::tracking::online_boosting::StrongClassifierDirectSelection", ptr %6, i32 0, i32 3
  %38 = load i32, ptr %37, align 8, !tbaa !37
  %39 = getelementptr inbounds nuw %"class.cv::detail::tracking::online_boosting::StrongClassifierDirectSelection", ptr %6, i32 0, i32 4
  %40 = load i32, ptr %39, align 4, !tbaa !36
  %41 = getelementptr inbounds nuw %"class.cv::detail::tracking::online_boosting::StrongClassifierDirectSelection", ptr %6, i32 0, i32 5
  %42 = load ptr, ptr %41, align 8, !tbaa !65
  %43 = getelementptr inbounds ptr, ptr %42, i64 0
  %44 = load ptr, ptr %43, align 8, !tbaa !66
  %45 = invoke noundef ptr @_ZN2cv6detail8tracking15online_boosting14BaseClassifier26getReferenceWeakClassifierEv(ptr noundef nonnull align 8 dereferenceable(84) %44)
          to label %46 unwind label %56

46:                                               ; preds = %35
  invoke void @_ZN2cv6detail8tracking15online_boosting14BaseClassifierC1EiiPPNS2_25WeakClassifierHaarFeatureE(ptr noundef nonnull align 8 dereferenceable(84) %36, i32 noundef %38, i32 noundef %40, ptr noundef %45)
          to label %47 unwind label %56

47:                                               ; preds = %46
  %48 = getelementptr inbounds nuw %"class.cv::detail::tracking::online_boosting::StrongClassifierDirectSelection", ptr %6, i32 0, i32 5
  %49 = load ptr, ptr %48, align 8, !tbaa !65
  %50 = load i32, ptr %5, align 4, !tbaa !8
  %51 = sext i32 %50 to i64
  %52 = getelementptr inbounds ptr, ptr %49, i64 %51
  store ptr %36, ptr %52, align 8, !tbaa !66
  br label %53

53:                                               ; preds = %47
  %54 = load i32, ptr %5, align 4, !tbaa !8
  %55 = add nsw i32 %54, 1
  store i32 %55, ptr %5, align 4, !tbaa !8
  br label %25, !llvm.loop !68

56:                                               ; preds = %46, %35
  %57 = landingpad { ptr, i32 }
          cleanup
  %58 = extractvalue { ptr, i32 } %57, 0
  store ptr %58, ptr %3, align 8
  %59 = extractvalue { ptr, i32 } %57, 1
  store i32 %59, ptr %4, align 4
  call void @_ZdlPv(ptr noundef %36) #19
  call void @llvm.lifetime.end.p0(i64 4, ptr %5) #3
  br label %61

60:                                               ; preds = %30
  ret void

61:                                               ; preds = %56, %31
  %62 = load ptr, ptr %3, align 8
  %63 = load i32, ptr %4, align 4
  %64 = insertvalue { ptr, i32 } poison, ptr %62, 0
  %65 = insertvalue { ptr, i32 } %64, i32 %63, 1
  resume { ptr, i32 } %65
}