; Function Attrs: mustprogress uwtable
define hidden void @_ZN2cv6detail8tracking15online_boosting31StrongClassifierDirectSelection18initBaseClassifierEv(ptr noundef nonnull align 8 captures(none) dereferenceable(192) initializes((24, 32)) %0) local_unnamed_addr #3 align 2 personality ptr @__gxx_personality_v0 {
  %2 = getelementptr inbounds nuw i8, ptr %0, i64 8
  %3 = load i32, ptr %2, align 8, !tbaa !13
  %4 = sext i32 %3 to i64
  %5 = icmp slt i32 %3, 0
  %6 = shl nsw i64 %4, 3
  %7 = select i1 %5, i64 -1, i64 %6
  %8 = tail call noalias noundef nonnull ptr @_Znam(i64 noundef %7) #25
  %9 = getelementptr inbounds nuw i8, ptr %0, i64 24
  store ptr %8, ptr %9, align 8, !tbaa !64
  %10 = tail call noalias noundef nonnull dereferenceable(88) ptr @_Znwm(i64 noundef 88) #25
  %11 = getelementptr inbounds nuw i8, ptr %0, i64 16
  %12 = load i32, ptr %11, align 8, !tbaa !33
  %13 = getelementptr inbounds nuw i8, ptr %0, i64 20
  %14 = load i32, ptr %13, align 4, !tbaa !32
  invoke void @_ZN2cv6detail8tracking15online_boosting14BaseClassifierC2Eii(ptr noundef nonnull align 8 dereferenceable(84) %10, i32 noundef %12, i32 noundef %14)
          to label %15 unwind label %19

15:                                               ; preds = %1
  %16 = load ptr, ptr %9, align 8, !tbaa !64
  store ptr %10, ptr %16, align 8, !tbaa !65
  %17 = load i32, ptr %2, align 8, !tbaa !13
  %18 = icmp sgt i32 %17, 1
  br i1 %18, label %.lr.ph, label %._crit_edge

._crit_edge:                                      ; preds = %28, %15
  ret void

19:                                               ; preds = %1
  %20 = landingpad { ptr, i32 }
          cleanup
  br label %36

.lr.ph:                                           ; preds = %15, %28
  %21 = phi ptr [ %29, %28 ], [ %16, %15 ]
  %indvars.iv = phi i64 [ %indvars.iv.next, %28 ], [ 1, %15 ]
  %22 = tail call noalias noundef nonnull dereferenceable(88) ptr @_Znwm(i64 noundef 88) #25
  %23 = load i32, ptr %11, align 8, !tbaa !33
  %24 = load i32, ptr %13, align 4, !tbaa !32
  %25 = load ptr, ptr %21, align 8, !tbaa !65
  %26 = getelementptr inbounds nuw i8, ptr %25, i64 8
  %27 = load ptr, ptr %26, align 8, !tbaa !67
  invoke void @_ZN2cv6detail8tracking15online_boosting14BaseClassifierC2EiiPPNS2_25WeakClassifierHaarFeatureE(ptr noundef nonnull align 8 dereferenceable(84) %22, i32 noundef %23, i32 noundef %24, ptr noundef %27)
          to label %28 unwind label %34

28:                                               ; preds = %.lr.ph
  %29 = load ptr, ptr %9, align 8, !tbaa !64
  %30 = getelementptr inbounds nuw ptr, ptr %29, i64 %indvars.iv
  store ptr %22, ptr %30, align 8, !tbaa !65
  %indvars.iv.next = add nuw nsw i64 %indvars.iv, 1
  %31 = load i32, ptr %2, align 8, !tbaa !13
  %32 = sext i32 %31 to i64
  %33 = icmp slt i64 %indvars.iv.next, %32
  br i1 %33, label %.lr.ph, label %._crit_edge, !llvm.loop !70

34:                                               ; preds = %.lr.ph
  %35 = landingpad { ptr, i32 }
          cleanup
  br label %36

36:                                               ; preds = %34, %19
  %.lcssa.sink = phi ptr [ %22, %34 ], [ %10, %19 ]
  %.pn = phi { ptr, i32 } [ %35, %34 ], [ %20, %19 ]
  tail call void @_ZdlPv(ptr noundef nonnull %.lcssa.sink) #26
  resume { ptr, i32 } %.pn
}